target datalayout = "e-m:e-p270:32:32-p271:32:32-p272:64:64-i64:64-i128:128-f80:128-n8:16:32:64-S128"
target triple = "x86_64-pc-linux-gnu"

%struct.Abc_Frame_t_ = type { ptr, ptr, ptr, ptr, ptr, ptr, ptr, ptr, ptr, ptr, i32, i32, i32, i32, i32, ptr, float, float, i32, i32, ptr, ptr, ptr, double, double, ptr, ptr, ptr, ptr, ptr, ptr, ptr, ptr, ptr, ptr, ptr, ptr, float, ptr, i32, ptr, ptr, ptr, ptr, ptr, i32, i32, i32, i32, i32, i32, ptr, ptr, ptr, ptr, ptr, ptr, i32, i32, ptr, ptr, ptr, ptr, ptr, ptr, ptr, ptr, ptr, ptr, ptr, ptr, ptr, ptr, ptr, ptr, ptr, ptr, ptr, ptr, ptr, ptr, ptr, ptr, ptr, ptr, ptr, ptr, ptr, ptr }

@glo_fMapped = external global i32, align 4
@globalUtilOptind = external global i32, align 4
@.str.113 = private unnamed_addr constant [4 x i8] c"yes\00", align 1
@.str.114 = private unnamed_addr constant [3 x i8] c"no\00", align 1
@.str.142 = private unnamed_addr constant [16 x i8] c"Empty network.\0A\00", align 1
@.str.207 = private unnamed_addr constant [3 x i8] c"mh\00", align 1
@.str.231 = private unnamed_addr constant [61 x i8] c"\09         writes the current network into <file> by calling\0A\00", align 1
@.str.233 = private unnamed_addr constant [34 x i8] c"\09-h     : print the help massage\0A\00", align 1
@.str.234 = private unnamed_addr constant [41 x i8] c"\09file   : the name of the file to write\0A\00", align 1
@.str.235 = private unnamed_addr constant [37 x i8] c"usage: write_hie [-h] <orig> <file>\0A\00", align 1
@.str.236 = private unnamed_addr constant [72 x i8] c"\09         the hierarchical writer that matches the extension of <file>\0A\00", align 1
@.str.237 = private unnamed_addr constant [67 x i8] c"\09-m     : toggle reading mapped Verilog for <orig> [default = %s]\0A\00", align 1
@.str.238 = private unnamed_addr constant [70 x i8] c"\09orig   : the name of the original file with the hierarchical design\0A\00", align 1

; Function Attrs: nounwind uwtable
define internal i32 @IoCommandWriteHie(ptr noundef %0, i32 noundef %1, ptr noundef %2) #0 {
  %4 = alloca i32, align 4
  %5 = alloca ptr, align 8
  %6 = alloca i32, align 4
  %7 = alloca ptr, align 8
  %8 = alloca ptr, align 8
  %9 = alloca ptr, align 8
  %10 = alloca i32, align 4
  %11 = alloca i32, align 4
  store ptr %0, ptr %5, align 8, !tbaa !3
  store i32 %1, ptr %6, align 4, !tbaa !8
  store ptr %2, ptr %7, align 8, !tbaa !10
  call void @llvm.lifetime.start.p0(i64 8, ptr %8) #11
  call void @llvm.lifetime.start.p0(i64 8, ptr %9) #11
  call void @llvm.lifetime.start.p0(i64 4, ptr %10) #11
  store i32 0, ptr @glo_fMapped, align 4, !tbaa !8
  call void (...) @Extra_UtilGetoptReset()
  br label %12

12:                                               ; preds = %24, %3
  %13 = load i32, ptr %6, align 4, !tbaa !8
  %14 = load ptr, ptr %7, align 8, !tbaa !10
  %15 = call i32 @Extra_UtilGetopt(i32 noundef %13, ptr noundef %14, ptr noundef @.str.207)
  store i32 %15, ptr %10, align 4, !tbaa !8
  %16 = icmp ne i32 %15, -1
  br i1 %16, label %17, label %25

17:                                               ; preds = %12
  %18 = load i32, ptr %10, align 4, !tbaa !8
  switch i32 %18, label %23 [
    i32 109, label %19
    i32 104, label %22
  ]

19:                                               ; preds = %17
  %20 = load i32, ptr @glo_fMapped, align 4, !tbaa !8
  %21 = xor i32 %20, 1
  store i32 %21, ptr @glo_fMapped, align 4, !tbaa !8
  br label %24

22:                                               ; preds = %17
  br label %58

23:                                               ; preds = %17
  br label %58

24:                                               ; preds = %19
  br label %12, !llvm.loop !74

25:                                               ; preds = %12
  %26 = load ptr, ptr %5, align 8, !tbaa !3
  %27 = getelementptr inbounds nuw %struct.Abc_Frame_t_, ptr %26, i32 0, i32 6
  %28 = load ptr, ptr %27, align 8, !tbaa !44
  %29 = icmp eq ptr %28, null
  br i1 %29, label %30, label %35

30:                                               ; preds = %25
  %31 = load ptr, ptr %5, align 8, !tbaa !3
  %32 = getelementptr inbounds nuw %struct.Abc_Frame_t_, ptr %31, i32 0, i32 20
  %33 = load ptr, ptr %32, align 8, !tbaa !45
  %34 = call i32 (ptr, ptr, ...) @fprintf(ptr noundef %33, ptr noundef @.str.142) #11
  store i32 0, ptr %4, align 4
  store i32 1, ptr %11, align 4
  br label %90

35:                                               ; preds = %25
  %36 = load i32, ptr %6, align 4, !tbaa !8
  %37 = load i32, ptr @globalUtilOptind, align 4, !tbaa !8
  %38 = add nsw i32 %37, 2
  %39 = icmp ne i32 %36, %38
  br i1 %39, label %40, label %41

40:                                               ; preds = %35
  br label %58

41:                                               ; preds = %35
  %42 = load ptr, ptr %7, align 8, !tbaa !10
  %43 = load i32, ptr @globalUtilOptind, align 4, !tbaa !8
  %44 = sext i32 %43 to i64
  %45 = getelementptr inbounds ptr, ptr %42, i64 %44
  %46 = load ptr, ptr %45, align 8, !tbaa !14
  store ptr %46, ptr %8, align 8, !tbaa !14
  %47 = load ptr, ptr %7, align 8, !tbaa !10
  %48 = load i32, ptr @globalUtilOptind, align 4, !tbaa !8
  %49 = add nsw i32 %48, 1
  %50 = sext i32 %49 to i64
  %51 = getelementptr inbounds ptr, ptr %47, i64 %50
  %52 = load ptr, ptr %51, align 8, !tbaa !14
  store ptr %52, ptr %9, align 8, !tbaa !14
  %53 = load ptr, ptr %5, align 8, !tbaa !3
  %54 = getelementptr inbounds nuw %struct.Abc_Frame_t_, ptr %53, i32 0, i32 6
  %55 = load ptr, ptr %54, align 8, !tbaa !44
  %56 = load ptr, ptr %8, align 8, !tbaa !14
  %57 = load ptr, ptr %9, align 8, !tbaa !14
  call void @Io_WriteHie(ptr noundef %55, ptr noundef %56, ptr noundef %57)
  store i32 0, ptr %4, align 4
  store i32 1, ptr %11, align 4
  br label %90

58:                                               ; preds = %40, %23, %22
  %59 = load ptr, ptr %5, align 8, !tbaa !3
  %60 = getelementptr inbounds nuw %struct.Abc_Frame_t_, ptr %59, i32 0, i32 21
  %61 = load ptr, ptr %60, align 8, !tbaa !24
  %62 = call i32 (ptr, ptr, ...) @fprintf(ptr noundef %61, ptr noundef @.str.235) #11
  %63 = load ptr, ptr %5, align 8, !tbaa !3
  %64 = getelementptr inbounds nuw %struct.Abc_Frame_t_, ptr %63, i32 0, i32 21
  %65 = load ptr, ptr %64, align 8, !tbaa !24
  %66 = call i32 (ptr, ptr, ...) @fprintf(ptr noundef %65, ptr noundef @.str.231) #11
  %67 = load ptr, ptr %5, align 8, !tbaa !3
  %68 = getelementptr inbounds nuw %struct.Abc_Frame_t_, ptr %67, i32 0, i32 21
  %69 = load ptr, ptr %68, align 8, !tbaa !24
  %70 = call i32 (ptr, ptr, ...) @fprintf(ptr noundef %69, ptr noundef @.str.236) #11
  %71 = load ptr, ptr %5, align 8, !tbaa !3
  %72 = getelementptr inbounds nuw %struct.Abc_Frame_t_, ptr %71, i32 0, i32 21
  %73 = load ptr, ptr %72, align 8, !tbaa !24
  %74 = load i32, ptr @glo_fMapped, align 4, !tbaa !8
  %75 = icmp ne i32 %74, 0
  %76 = select i1 %75, ptr @.str.113, ptr @.str.114
  %77 = call i32 (ptr, ptr, ...) @fprintf(ptr noundef %73, ptr noundef @.str.237, ptr noundef %76) #11
  %78 = load ptr, ptr %5, align 8, !tbaa !3
  %79 = getelementptr inbounds nuw %struct.Abc_Frame_t_, ptr %78, i32 0, i32 21
  %80 = load ptr, ptr %79, align 8, !tbaa !24
  %81 = call i32 (ptr, ptr, ...) @fprintf(ptr noundef %80, ptr noundef @.str.233) #11
  %82 = load ptr, ptr %5, align 8, !tbaa !3
  %83 = getelementptr inbounds nuw %struct.Abc_Frame_t_, ptr %82, i32 0, i32 21
  %84 = load ptr, ptr %83, align 8, !tbaa !24
  %85 = call i32 (ptr, ptr, ...) @fprintf(ptr noundef %84, ptr noundef @.str.238) #11
  %86 = load ptr, ptr %5, align 8, !tbaa !3
  %87 = getelementptr inbounds nuw %struct.Abc_Frame_t_, ptr %86, i32 0, i32 21
  %88 = load ptr, ptr %87, align 8, !tbaa !24
  %89 = call i32 (ptr, ptr, ...) @fprintf(ptr noundef %88, ptr noundef @.str.234) #11
  store i32 1, ptr %4, align 4
  store i32 1, ptr %11, align 4
  br label %90

90:                                               ; preds = %58, %41, %30
  call void @llvm.lifetime.end.p0(i64 4, ptr %10) #11
  call void @llvm.lifetime.end.p0(i64 8, ptr %9) #11
  call void @llvm.lifetime.end.p0(i64 8, ptr %8) #11
  %91 = load i32, ptr %4, align 4
  ret i32 %91
}