; Function Attrs: nounwind uwtable
define internal range(i32 0, 2) i32 @IoCommandWriteHie(ptr noundef readonly captures(none) %0, i32 noundef %1, ptr noundef %2) #0 {
  store i32 0, ptr @glo_fMapped, align 4, !tbaa !3
  tail call void (...) @Extra_UtilGetoptReset() #18
  br label %4

4:                                                ; preds = %6, %3
  %5 = tail call i32 @Extra_UtilGetopt(i32 noundef %1, ptr noundef %2, ptr noundef nonnull @.str.207) #18
  switch i32 %5, label %.loopexit [
    i32 -1, label %9
    i32 109, label %6
  ]

6:                                                ; preds = %4
  %7 = load i32, ptr @glo_fMapped, align 4, !tbaa !3
  %8 = xor i32 %7, 1
  store i32 %8, ptr @glo_fMapped, align 4, !tbaa !3
  br label %4, !llvm.loop !72

9:                                                ; preds = %4
  %10 = getelementptr inbounds nuw i8, ptr %0, i64 48
  %11 = load ptr, ptr %10, align 8, !tbaa !49
  %12 = icmp eq ptr %11, null
  br i1 %12, label %13, label %17

13:                                               ; preds = %9
  %14 = getelementptr inbounds nuw i8, ptr %0, i64 128
  %15 = load ptr, ptr %14, align 8, !tbaa !50
  %16 = tail call i64 @fwrite(ptr nonnull @.str.142, i64 15, i64 1, ptr %15)
  br label %43

17:                                               ; preds = %9
  %18 = load i32, ptr @globalUtilOptind, align 4, !tbaa !3
  %19 = add nsw i32 %18, 2
  %.not20 = icmp eq i32 %1, %19
  br i1 %.not20, label %20, label %.loopexit

20:                                               ; preds = %17
  %21 = sext i32 %18 to i64
  %22 = getelementptr inbounds ptr, ptr %2, i64 %21
  %23 = load ptr, ptr %22, align 8, !tbaa !9
  %24 = getelementptr i8, ptr %22, i64 8
  %25 = load ptr, ptr %24, align 8, !tbaa !9
  tail call void @Io_WriteHie(ptr noundef nonnull %11, ptr noundef %23, ptr noundef %25) #18
  br label %43

.loopexit:                                        ; preds = %4, %17
  %26 = getelementptr inbounds nuw i8, ptr %0, i64 136
  %27 = load ptr, ptr %26, align 8, !tbaa !34
  %28 = tail call i64 @fwrite(ptr nonnull @.str.235, i64 36, i64 1, ptr %27)
  %29 = load ptr, ptr %26, align 8, !tbaa !34
  %30 = tail call i64 @fwrite(ptr nonnull @.str.231, i64 60, i64 1, ptr %29)
  %31 = load ptr, ptr %26, align 8, !tbaa !34
  %32 = tail call i64 @fwrite(ptr nonnull @.str.236, i64 71, i64 1, ptr %31)
  %33 = load ptr, ptr %26, align 8, !tbaa !34
  %34 = load i32, ptr @glo_fMapped, align 4, !tbaa !3
  %.not21 = icmp eq i32 %34, 0
  %35 = select i1 %.not21, ptr @.str.114, ptr @.str.113
  %36 = tail call i32 (ptr, ptr, ...) @fprintf(ptr noundef %33, ptr noundef nonnull @.str.237, ptr noundef nonnull %35) #18
  %37 = load ptr, ptr %26, align 8, !tbaa !34
  %38 = tail call i64 @fwrite(ptr nonnull @.str.233, i64 33, i64 1, ptr %37)
  %39 = load ptr, ptr %26, align 8, !tbaa !34
  %40 = tail call i64 @fwrite(ptr nonnull @.str.238, i64 69, i64 1, ptr %39)
  %41 = load ptr, ptr %26, align 8, !tbaa !34
  %42 = tail call i64 @fwrite(ptr nonnull @.str.234, i64 40, i64 1, ptr %41)
  br label %43

43:                                               ; preds = %.loopexit, %20, %13
  %.0 = phi i32 [ 1, %.loopexit ], [ 0, %13 ], [ 0, %20 ]
  ret i32 %.0
}